; Function Attrs: nounwind uwtable
define noalias ptr @png_malloc_base(ptr noalias noundef %0, i64 noundef %1) local_unnamed_addr #0 {
  %.not = icmp eq ptr %0, null
  br i1 %.not, label %8, label %3

3:                                                ; preds = %2
  %4 = getelementptr inbounds nuw i8, ptr %0, i64 1064
  %5 = load ptr, ptr %4, align 8, !tbaa !37
  %.not9 = icmp eq ptr %5, null
  br i1 %.not9, label %8, label %6

6:                                                ; preds = %3
  %7 = tail call ptr %5(ptr noundef nonnull %0, i64 noundef %1) #12
  br label %10

8:                                                ; preds = %3, %2
  %9 = tail call noalias ptr @malloc(i64 noundef %1) #13
  br label %10

10:                                               ; preds = %8, %6
  %.0 = phi ptr [ %7, %6 ], [ %9, %8 ]
  ret ptr %.0
}